target datalayout = "e-m:e-p270:32:32-p271:32:32-p272:64:64-i64:64-i128:128-f80:128-n8:16:32:64-S128"
target triple = "x86_64-pc-linux-gnu"

@.str.6 = private unnamed_addr constant [33 x i8] c"attempt to compare two %s values\00", align 1
@.str.7 = private unnamed_addr constant [30 x i8] c"attempt to compare %s with %s\00", align 1

; Function Attrs: noreturn nounwind uwtable
define hidden void @luaG_ordererror(ptr noundef %0, ptr noundef %1, ptr noundef %2) #5 {
  %4 = alloca ptr, align 8
  %5 = alloca ptr, align 8
  %6 = alloca ptr, align 8
  %7 = alloca ptr, align 8
  %8 = alloca ptr, align 8
  store ptr %0, ptr %4, align 8, !tbaa !30
  store ptr %1, ptr %5, align 8, !tbaa !64
  store ptr %2, ptr %6, align 8, !tbaa !64
  call void @llvm.lifetime.start.p0(i64 8, ptr %7) #8
  %9 = load ptr, ptr %4, align 8, !tbaa !30
  %10 = load ptr, ptr %5, align 8, !tbaa !64
  %11 = call ptr @luaT_objtypename(ptr noundef %9, ptr noundef %10)
  store ptr %11, ptr %7, align 8, !tbaa !58
  call void @llvm.lifetime.start.p0(i64 8, ptr %8) #8
  %12 = load ptr, ptr %4, align 8, !tbaa !30
  %13 = load ptr, ptr %6, align 8, !tbaa !64
  %14 = call ptr @luaT_objtypename(ptr noundef %12, ptr noundef %13)
  store ptr %14, ptr %8, align 8, !tbaa !58
  %15 = load ptr, ptr %7, align 8, !tbaa !58
  %16 = load ptr, ptr %8, align 8, !tbaa !58
  %17 = call i32 @strcmp(ptr noundef %15, ptr noundef %16) #9
  %18 = icmp eq i32 %17, 0
  br i1 %18, label %19, label %22

19:                                               ; preds = %3
  %20 = load ptr, ptr %4, align 8, !tbaa !30
  %21 = load ptr, ptr %7, align 8, !tbaa !58
  call void (ptr, ptr, ...) @luaG_runerror(ptr noundef %20, ptr noundef @.str.6, ptr noundef %21) #10
  unreachable

22:                                               ; preds = %3
  %23 = load ptr, ptr %4, align 8, !tbaa !30
  %24 = load ptr, ptr %7, align 8, !tbaa !58
  %25 = load ptr, ptr %8, align 8, !tbaa !58
  call void (ptr, ptr, ...) @luaG_runerror(ptr noundef %23, ptr noundef @.str.7, ptr noundef %24, ptr noundef %25) #10
  unreachable
}