; Function Attrs: noreturn nounwind uwtable
define hidden void @luaG_ordererror(ptr noundef %0, ptr noundef %1, ptr noundef %2) local_unnamed_addr #9 {
  %4 = tail call ptr @luaT_objtypename(ptr noundef %0, ptr noundef %1) #13
  %5 = tail call ptr @luaT_objtypename(ptr noundef %0, ptr noundef %2) #13
  %6 = tail call i32 @strcmp(ptr noundef nonnull dereferenceable(1) %4, ptr noundef nonnull dereferenceable(1) %5) #14
  %7 = icmp eq i32 %6, 0
  br i1 %7, label %8, label %9

8:                                                ; preds = %3
  tail call void (ptr, ptr, ...) @luaG_runerror(ptr noundef %0, ptr noundef nonnull @.str.6, ptr noundef nonnull %4) #15
  unreachable

9:                                                ; preds = %3
  tail call void (ptr, ptr, ...) @luaG_runerror(ptr noundef %0, ptr noundef nonnull @.str.7, ptr noundef nonnull %4, ptr noundef nonnull %5) #15
  unreachable
}